target datalayout = "e-m:e-p270:32:32-p271:32:32-p272:64:64-i64:64-i128:128-f80:128-n8:16:32:64-S128"
target triple = "x86_64-pc-linux-gnu"

%class.symbol = type { ptr }
%class.params_ref = type { ptr }
%"class.opt::opt_solver" = type <{ %class.solver_na2as, %struct.smt_params, %"class.smt::kernel", ptr, ptr, ptr, %class.symbol, %class.ref.1, %class.svector.2, %class.vector.4, %class.ref_vector_core.5, %class.ref_vector, i8, [7 x i8], %class.statistics, i8, i8, [6 x i8] }>
%class.solver_na2as = type { %class.solver, %class.ref_vector, %class.svector }
%class.solver = type { %class.check_sat_result, %"class.user_propagator::core", %class.params_ref, %class.symbol }
%class.check_sat_result = type { ptr, ptr, %class.ref_vector, %class.obj_ref, i32, i32, %class.ref, double }
%class.obj_ref = type { ptr, ptr }
%class.ref = type { ptr }
%"class.user_propagator::core" = type { ptr }
%class.svector = type { %class.vector.0 }
%class.vector.0 = type { ptr }
%struct.smt_params = type { %struct.preprocessor_params.base, %struct.dyn_ack_params, %struct.qi_params, %struct.theory_arith_params.base, i8, %struct.theory_array_params.base, %struct.theory_bv_params, [4 x i8], %struct.theory_str_params.base, %struct.theory_seq_params, %struct.theory_pb_params.base, %struct.theory_datatype_params, i8, i8, i8, i8, i8, i8, i32, i8, i32, double, double, i32, i32, i32, i32, i32, i8, i32, i32, i32, i32, i32, i32, i8, i32, i8, i8, i8, i8, i8, %class.symbol, i8, i8, i32, i32, i8, i8, i8, i8, i32, i8, i32, i32, double, i8, double, double, i32, i8, i32, i32, double, i32, i32, i32, i32, i32, double, i8, i8, i8, i8, %class.symbol, i8, i8, i8, i8, i8, i8, i32, i8, i8, i8, i8, i8, i8, i8, i8, i8, double, i8, %class.symbol }
%struct.preprocessor_params.base = type <{ %struct.pattern_inference_params.base, %struct.bit_blaster_params, i32, i32, i8, i8, i8, i8, i8, i8, i8, i8, i8, i8, i8, i8, i8, i8, i8, i8, i8, i8, i8 }>
%struct.pattern_inference_params.base = type <{ i8, [3 x i8], i32, i8, i8, [2 x i8], i32, i8, [3 x i8], i32, i32, i8, [3 x i8], i32, i8, i8 }>
%struct.bit_blaster_params = type { i8, i8 }
%struct.dyn_ack_params = type { i32, i8, double, i32, i32, double }
%struct.qi_params = type { %"class.std::__cxx11::basic_string", %"class.std::__cxx11::basic_string", double, double, i32, i32, i8, i32, i32, i8, i8, i32, i8, i8, i8, i8, i32, i32, i32, i8, i32, ptr }
%"class.std::__cxx11::basic_string" = type { %"struct.std::__cxx11::basic_string<char>::_Alloc_hider", i64, %union.anon }
%"struct.std::__cxx11::basic_string<char>::_Alloc_hider" = type { ptr }
%union.anon = type { i64, [8 x i8] }
%struct.theory_arith_params.base = type <{ i8, i8, [2 x i8], i32, i8, [3 x i8], i32, i8, [3 x i8], i32, i8, i8, [2 x i8], i32, i32, i8, i8, [2 x i8], i32, i32, i8, [3 x i8], i32, i32, i8, [3 x i8], double, double, i8, [3 x i8], i32, i8, i8, i8, i8, i8, [3 x i8], i32, i8, i8, [2 x i8], i32, i8, [3 x i8], i32, i8, i8, i8, i8, i8, i8, [2 x i8], i32, i8, i8, [2 x i8], i32, i8, [3 x i8], i32, i8, i8, i8 }>
%struct.theory_array_params.base = type <{ i8, i8, [2 x i8], i32, i8, i8, [2 x i8], i32, i8, i8, i8, i8, i32, i8 }>
%struct.theory_bv_params = type { i32, i8, i8, i8, i8, i32, i8, i8, i8, i8, i32 }
%struct.theory_str_params.base = type <{ i8, i8, i8, i8, i8, i8, i8, i8, double, i32, i32, i32, i32, i32, i8, i8 }>
%struct.theory_seq_params = type { i8, i8, i32, i32 }
%struct.theory_pb_params.base = type <{ i32, i8 }>
%struct.theory_datatype_params = type { i32 }
%"class.smt::kernel" = type { ptr }
%class.ref.1 = type { ptr }
%class.svector.2 = type { %class.vector.3 }
%class.vector.3 = type { ptr }
%class.vector.4 = type { ptr }
%class.ref_vector_core.5 = type { %class.ptr_vector.6 }
%class.ptr_vector.6 = type { %class.vector.7 }
%class.vector.7 = type { ptr }
%class.ref_vector = type { %class.ref_vector_core }
%class.ref_vector_core = type { %class.ref_manager_wrapper, %class.ptr_vector }
%class.ref_manager_wrapper = type { ptr }
%class.ptr_vector = type { %class.vector }
%class.vector = type { ptr }
%class.statistics = type { %class.svector.8, %class.svector.10 }
%class.svector.8 = type { %class.vector.9 }
%class.vector.9 = type { ptr }
%class.svector.10 = type { %class.vector.11 }
%class.vector.11 = type { ptr }
%class.ptr_vector.73 = type { %class.vector.74 }
%class.vector.74 = type { ptr }
%class.ast = type { i32, i32, i32, i32 }
%class.app = type { %class.expr, ptr, i32, %struct.app_flags, [0 x ptr] }
%class.expr = type { %class.ast }
%struct.app_flags = type <{ i16, i8, i8 }>
%class.model_core = type { ptr, ptr, i32, [4 x i8], %class.obj_map.511, %class.obj_map.516, %class.ptr_vector.73, %class.ptr_vector.73, %class.ptr_vector.73 }
%class.obj_map.511 = type { %class.core_hashtable.512 }
%class.core_hashtable.512 = type <{ ptr, i32, i32, i32, [4 x i8] }>
%class.obj_map.516 = type { %class.core_hashtable.517 }
%class.core_hashtable.517 = type <{ ptr, i32, i32, i32, [4 x i8] }>

; Function Attrs: mustprogress uwtable
define linkonce_odr hidden void @_Z7deallocI10model_coreEvPT_(ptr noundef %0) #6 comdat {
  %2 = alloca ptr, align 8
  store ptr %0, ptr %2, align 8, !tbaa !751
  %3 = load ptr, ptr %2, align 8, !tbaa !751
  %4 = icmp eq ptr %3, null
  br i1 %4, label %5, label %6

5:                                                ; preds = %1
  br label %12

6:                                                ; preds = %1
  %7 = load ptr, ptr %2, align 8, !tbaa !751
  %8 = load ptr, ptr %7, align 8, !tbaa !36
  %9 = getelementptr inbounds ptr, ptr %8, i64 0
  %10 = load ptr, ptr %9, align 8
  call void %10(ptr noundef nonnull align 8 dereferenceable(96) %7) #3
  %11 = load ptr, ptr %2, align 8, !tbaa !751
  call void @_ZN6memory10deallocateEPv(ptr noundef %11)
  br label %12

12:                                               ; preds = %6, %5
  ret void
}

; Function Attrs: mustprogress nounwind uwtable
define linkonce_odr hidden noundef i32 @_ZNK3ast8get_kindEv(ptr noundef nonnull align 4 dereferenceable(16) %0) #4 comdat align 2 {
  %2 = alloca ptr, align 8
  store ptr %0, ptr %2, align 8, !tbaa !620
  %3 = load ptr, ptr %2, align 8
  %4 = getelementptr inbounds nuw %class.ast, ptr %3, i32 0, i32 1
  %5 = load i32, ptr %4, align 4
  %6 = and i32 %5, 65535
  ret i32 %6
}

; Function Attrs: mustprogress uwtable
define linkonce_odr hidden void @_ZN10model_core7dec_refEv(ptr noundef nonnull align 8 dereferenceable(96) %0) #6 comdat align 2 {
  %2 = alloca ptr, align 8
  store ptr %0, ptr %2, align 8, !tbaa !751
  %3 = load ptr, ptr %2, align 8
  %4 = getelementptr inbounds nuw %class.model_core, ptr %3, i32 0, i32 2
  %5 = load i32, ptr %4, align 8, !tbaa !753
  %6 = add i32 %5, -1
  store i32 %6, ptr %4, align 8, !tbaa !753
  %7 = getelementptr inbounds nuw %class.model_core, ptr %3, i32 0, i32 2
  %8 = load i32, ptr %7, align 8, !tbaa !753
  %9 = icmp eq i32 %8, 0
  br i1 %9, label %10, label %11

10:                                               ; preds = %1
  call void @_Z7deallocI10model_coreEvPT_(ptr noundef %3)
  br label %11

11:                                               ; preds = %10, %1
  ret void
}

; Function Attrs: inlinehint mustprogress nounwind uwtable
define linkonce_odr hidden noundef zeroext i1 @_Z13is_quantifierPK3ast(ptr noundef %0) #8 comdat {
  %2 = alloca ptr, align 8
  store ptr %0, ptr %2, align 8, !tbaa !620
  %3 = load ptr, ptr %2, align 8, !tbaa !620
  %4 = call noundef i32 @_ZNK3ast8get_kindEv(ptr noundef nonnull align 4 dereferenceable(16) %3)
  %5 = icmp eq i32 %4, 2
  ret i1 %5
}

; Function Attrs: mustprogress nounwind uwtable
define linkonce_odr hidden noundef zeroext i1 @_ZNK3app15has_quantifiersEv(ptr noundef nonnull align 8 dereferenceable(32) %0) #4 comdat align 2 {
  %2 = alloca ptr, align 8
  store ptr %0, ptr %2, align 8, !tbaa !332
  %3 = load ptr, ptr %2, align 8
  %4 = getelementptr inbounds nuw %class.app, ptr %3, i32 0, i32 3
  %5 = getelementptr inbounds nuw %struct.app_flags, ptr %4, i32 0, i32 1
  %6 = load i8, ptr %5, align 2
  %7 = lshr i8 %6, 1
  %8 = and i8 %7, 1
  %9 = zext i8 %8 to i32
  %10 = icmp ne i32 %9, 0
  ret i1 %10
}

; Function Attrs: inlinehint mustprogress nounwind uwtable
define linkonce_odr hidden noundef ptr @_Z6to_appPK3ast(ptr noundef %0) #8 comdat {
  %2 = alloca ptr, align 8
  store ptr %0, ptr %2, align 8, !tbaa !620
  %3 = load ptr, ptr %2, align 8, !tbaa !620
  ret ptr %3
}

; Function Attrs: inlinehint mustprogress uwtable
define linkonce_odr hidden noundef zeroext i1 @_Z6is_appPK3ast(ptr noundef %0) #9 comdat {
  %2 = alloca ptr, align 8
  store ptr %0, ptr %2, align 8, !tbaa !620
  %3 = load ptr, ptr %2, align 8, !tbaa !620
  %4 = call noundef i32 @_ZNK3ast8get_kindEv(ptr noundef nonnull align 4 dereferenceable(16) %3)
  %5 = icmp eq i32 %4, 0
  ret i1 %5
}

; Function Attrs: mustprogress uwtable
define linkonce_odr hidden void @_ZN3refI5modelE7dec_refEv(ptr noundef nonnull align 8 dereferenceable(8) %0) #6 comdat align 2 {
  %2 = alloca ptr, align 8
  store ptr %0, ptr %2, align 8, !tbaa !205
  %3 = load ptr, ptr %2, align 8
  %4 = getelementptr inbounds nuw %class.ref.1, ptr %3, i32 0, i32 0
  %5 = load ptr, ptr %4, align 8, !tbaa !207
  %6 = icmp ne ptr %5, null
  br i1 %6, label %7, label %10

7:                                                ; preds = %1
  %8 = getelementptr inbounds nuw %class.ref.1, ptr %3, i32 0, i32 0
  %9 = load ptr, ptr %8, align 8, !tbaa !207
  call void @_ZN10model_core7dec_refEv(ptr noundef nonnull align 8 dereferenceable(96) %9)
  br label %10

10:                                               ; preds = %7, %1
  ret void
}

; Function Attrs: mustprogress nounwind uwtable
define linkonce_odr hidden void @_ZN10model_core7inc_refEv(ptr noundef nonnull align 8 dereferenceable(96) %0) #4 comdat align 2 {
  %2 = alloca ptr, align 8
  store ptr %0, ptr %2, align 8, !tbaa !751
  %3 = load ptr, ptr %2, align 8
  %4 = getelementptr inbounds nuw %class.model_core, ptr %3, i32 0, i32 2
  %5 = load i32, ptr %4, align 8, !tbaa !753
  %6 = add i32 %5, 1
  store i32 %6, ptr %4, align 8, !tbaa !753
  ret void
}

; Function Attrs: inlinehint mustprogress uwtable
define linkonce_odr hidden noundef zeroext i1 @_Z15has_quantifiersPK4expr(ptr noundef %0) #9 comdat {
  %2 = alloca ptr, align 8
  store ptr %0, ptr %2, align 8, !tbaa !231
  %3 = load ptr, ptr %2, align 8, !tbaa !231
  %4 = call noundef zeroext i1 @_Z6is_appPK3ast(ptr noundef %3)
  br i1 %4, label %5, label %9

5:                                                ; preds = %1
  %6 = load ptr, ptr %2, align 8, !tbaa !231
  %7 = call noundef ptr @_Z6to_appPK3ast(ptr noundef %6)
  %8 = call noundef zeroext i1 @_ZNK3app15has_quantifiersEv(ptr noundef nonnull align 8 dereferenceable(32) %7)
  br label %12

9:                                                ; preds = %1
  %10 = load ptr, ptr %2, align 8, !tbaa !231
  %11 = call noundef zeroext i1 @_Z13is_quantifierPK3ast(ptr noundef %10)
  br label %12

12:                                               ; preds = %9, %5
  %13 = phi i1 [ %8, %5 ], [ %11, %9 ]
  ret i1 %13
}

; Function Attrs: mustprogress uwtable
define linkonce_odr hidden noundef nonnull align 8 dereferenceable(8) ptr @_ZN3refI5modelEaSEPS0_(ptr noundef nonnull align 8 dereferenceable(8) %0, ptr noundef %1) #6 comdat align 2 {
  %3 = alloca ptr, align 8
  %4 = alloca ptr, align 8
  store ptr %0, ptr %3, align 8, !tbaa !205
  store ptr %1, ptr %4, align 8, !tbaa !233
  %5 = load ptr, ptr %3, align 8
  %6 = load ptr, ptr %4, align 8, !tbaa !233
  %7 = icmp ne ptr %6, null
  br i1 %7, label %8, label %10

8:                                                ; preds = %2
  %9 = load ptr, ptr %4, align 8, !tbaa !233
  call void @_ZN10model_core7inc_refEv(ptr noundef nonnull align 8 dereferenceable(96) %9)
  br label %10

10:                                               ; preds = %8, %2
  call void @_ZN3refI5modelE7dec_refEv(ptr noundef nonnull align 8 dereferenceable(8) %5)
  %11 = load ptr, ptr %4, align 8, !tbaa !233
  %12 = getelementptr inbounds nuw %class.ref.1, ptr %5, i32 0, i32 0
  store ptr %11, ptr %12, align 8, !tbaa !207
  ret ptr %5
}

; Function Attrs: mustprogress uwtable
define hidden void @_ZN3opt10opt_solver16assert_expr_coreEP4expr(ptr noundef nonnull align 8 dereferenceable(1042) %0, ptr noundef %1) unnamed_addr #6 align 2 {
  %3 = alloca ptr, align 8
  %4 = alloca ptr, align 8
  store ptr %0, ptr %3, align 8, !tbaa !28
  store ptr %1, ptr %4, align 8, !tbaa !231
  %5 = load ptr, ptr %3, align 8
  %6 = getelementptr inbounds nuw %"class.opt::opt_solver", ptr %5, i32 0, i32 7
  %7 = call noundef nonnull align 8 dereferenceable(8) ptr @_ZN3refI5modelEaSEPS0_(ptr noundef nonnull align 8 dereferenceable(8) %6, ptr noundef null)
  %8 = load ptr, ptr %4, align 8, !tbaa !231
  %9 = call noundef zeroext i1 @_Z15has_quantifiersPK4expr(ptr noundef %8)
  br i1 %9, label %10, label %13

10:                                               ; preds = %2
  %11 = getelementptr inbounds nuw %"class.opt::opt_solver", ptr %5, i32 0, i32 1
  %12 = getelementptr inbounds nuw %struct.smt_params, ptr %11, i32 0, i32 18
  store i32 2, ptr %12, align 8, !tbaa !119
  br label %13

13:                                               ; preds = %10, %2
  %14 = getelementptr inbounds nuw %"class.opt::opt_solver", ptr %5, i32 0, i32 2
  %15 = load ptr, ptr %4, align 8, !tbaa !231
  call void @_ZN3smt6kernel11assert_exprEP4expr(ptr noundef nonnull align 8 dereferenceable(8) %14, ptr noundef %15)
  ret void
}