; Function Attrs: mustprogress uwtable
define hidden void @_ZN3opt10opt_solver16assert_expr_coreEP4expr(ptr noundef nonnull align 8 dereferenceable(1042) %0, ptr noundef %1) unnamed_addr #4 align 2 {
  %3 = getelementptr inbounds nuw i8, ptr %0, i64 968
  %4 = load ptr, ptr %3, align 8, !tbaa !288
  %.not.i.i = icmp eq ptr %4, null
  br i1 %.not.i.i, label %_ZN3refI5modelEaSEPS0_.exit, label %5

5:                                                ; preds = %2
  %6 = getelementptr inbounds nuw i8, ptr %4, i64 16
  %7 = load i32, ptr %6, align 8, !tbaa !273
  %8 = add i32 %7, -1
  store i32 %8, ptr %6, align 8, !tbaa !273
  %9 = icmp eq i32 %8, 0
  br i1 %9, label %10, label %_ZN3refI5modelEaSEPS0_.exit

10:                                               ; preds = %5
  %11 = load ptr, ptr %4, align 8, !tbaa !3
  %12 = load ptr, ptr %11, align 8
  tail call void %12(ptr noundef nonnull align 8 dereferenceable(96) %4) #26
  tail call void @_ZN6memory10deallocateEPv(ptr noundef nonnull align 8 dereferenceable(96) %4)
  br label %_ZN3refI5modelEaSEPS0_.exit

_ZN3refI5modelEaSEPS0_.exit:                      ; preds = %2, %5, %10
  store ptr null, ptr %3, align 8, !tbaa !288
  %13 = getelementptr inbounds nuw i8, ptr %1, i64 4
  %14 = load i32, ptr %13, align 4
  %trunc = trunc i32 %14 to i16
  switch i16 %trunc, label %21 [
    i16 0, label %15
    i16 2, label %19
  ]

15:                                               ; preds = %_ZN3refI5modelEaSEPS0_.exit
  %16 = getelementptr inbounds nuw i8, ptr %1, i64 30
  %17 = load i8, ptr %16, align 2
  %18 = and i8 %17, 2
  %.not = icmp eq i8 %18, 0
  br i1 %.not, label %21, label %19

19:                                               ; preds = %_ZN3refI5modelEaSEPS0_.exit, %15
  %20 = getelementptr inbounds nuw i8, ptr %0, i64 640
  store i32 2, ptr %20, align 8, !tbaa !96
  br label %21

21:                                               ; preds = %_ZN3refI5modelEaSEPS0_.exit, %15, %19
  %22 = getelementptr inbounds nuw i8, ptr %0, i64 928
  tail call void @_ZN3smt6kernel11assert_exprEP4expr(ptr noundef nonnull align 8 dereferenceable(8) %22, ptr noundef nonnull %1)
  ret void
}